target datalayout = "e-m:e-p270:32:32-p271:32:32-p272:64:64-i64:64-i128:128-f80:128-n8:16:32:64-S128"
target triple = "x86_64-pc-linux-gnu"

%"class.cv::GStreamingCompiled::Priv" = type { %"class.std::vector", %"class.std::vector", %"class.std::unique_ptr", %"class.std::vector.2", %"class.std::vector.2" }
%"class.std::vector" = type { %"struct.std::_Vector_base" }
%"struct.std::_Vector_base" = type { %"struct.std::_Vector_base<cv::util::variant<cv::util::monostate, cv::GMatDesc, cv::GScalarDesc, cv::GArrayDesc, cv::GOpaqueDesc, cv::GFrameDesc>, std::allocator<cv::util::variant<cv::util::monostate, cv::GMatDesc, cv::GScalarDesc, cv::GArrayDesc, cv::GOpaqueDesc, cv::GFrameDesc>>>::_Vector_impl" }
%"struct.std::_Vector_base<cv::util::variant<cv::util::monostate, cv::GMatDesc, cv::GScalarDesc, cv::GArrayDesc, cv::GOpaqueDesc, cv::GFrameDesc>, std::allocator<cv::util::variant<cv::util::monostate, cv::GMatDesc, cv::GScalarDesc, cv::GArrayDesc, cv::GOpaqueDesc, cv::GFrameDesc>>>::_Vector_impl" = type { %"struct.std::_Vector_base<cv::util::variant<cv::util::monostate, cv::GMatDesc, cv::GScalarDesc, cv::GArrayDesc, cv::GOpaqueDesc, cv::GFrameDesc>, std::allocator<cv::util::variant<cv::util::monostate, cv::GMatDesc, cv::GScalarDesc, cv::GArrayDesc, cv::GOpaqueDesc, cv::GFrameDesc>>>::_Vector_impl_data" }
%"struct.std::_Vector_base<cv::util::variant<cv::util::monostate, cv::GMatDesc, cv::GScalarDesc, cv::GArrayDesc, cv::GOpaqueDesc, cv::GFrameDesc>, std::allocator<cv::util::variant<cv::util::monostate, cv::GMatDesc, cv::GScalarDesc, cv::GArrayDesc, cv::GOpaqueDesc, cv::GFrameDesc>>>::_Vector_impl_data" = type { ptr, ptr, ptr }
%"class.std::unique_ptr" = type { %"struct.std::__uniq_ptr_data" }
%"struct.std::__uniq_ptr_data" = type { %"class.std::__uniq_ptr_impl" }
%"class.std::__uniq_ptr_impl" = type { %"class.std::tuple" }
%"class.std::tuple" = type { %"struct.std::_Tuple_impl" }
%"struct.std::_Tuple_impl" = type { %"struct.std::_Head_base.1" }
%"struct.std::_Head_base.1" = type { ptr }
%"class.std::vector.2" = type { %"struct.std::_Vector_base.3" }
%"struct.std::_Vector_base.3" = type { %"struct.std::_Vector_base<cv::GTypeInfo, std::allocator<cv::GTypeInfo>>::_Vector_impl" }
%"struct.std::_Vector_base<cv::GTypeInfo, std::allocator<cv::GTypeInfo>>::_Vector_impl" = type { %"struct.std::_Vector_base<cv::GTypeInfo, std::allocator<cv::GTypeInfo>>::_Vector_impl_data" }
%"struct.std::_Vector_base<cv::GTypeInfo, std::allocator<cv::GTypeInfo>>::_Vector_impl_data" = type { ptr, ptr, ptr }
%"class.std::tuple.39" = type { %"struct.std::_Tuple_impl.base", [7 x i8] }
%"struct.std::_Tuple_impl.base" = type <{ %"struct.std::_Tuple_impl.41", %"struct.std::_Head_base.43" }>
%"struct.std::_Tuple_impl.41" = type { %"struct.std::_Head_base.42" }
%"struct.std::_Head_base.42" = type { %"class.cv::util::variant" }
%"class.cv::util::variant" = type { i64, [1 x %"union.std::aligned_storage<24, 8>::type"] }
%"union.std::aligned_storage<24, 8>::type" = type { [24 x i8] }
%"struct.std::_Head_base.43" = type { i8 }
%"class.cv::GStreamingCompiled" = type { %"class.std::shared_ptr.44" }
%"class.std::shared_ptr.44" = type { %"class.std::__shared_ptr.45" }
%"class.std::__shared_ptr.45" = type { ptr, %"class.std::__shared_count" }
%"class.std::__shared_count" = type { ptr }

; Function Attrs: mustprogress nounwind uwtable
define linkonce_odr hidden noundef nonnull align 8 dereferenceable(8) ptr @_ZNSt10_Head_baseILm0EPN2cv5gimpl26GAbstractStreamingExecutorELb0EE7_M_headERKS4_(ptr noundef nonnull align 8 dereferenceable(8) %0) #5 comdat align 2 {
  %2 = alloca ptr, align 8
  store ptr %0, ptr %2, align 8, !tbaa !69
  %3 = load ptr, ptr %2, align 8, !tbaa !69
  %4 = getelementptr inbounds nuw %"struct.std::_Head_base.1", ptr %3, i32 0, i32 0
  ret ptr %4
}

; Function Attrs: mustprogress nounwind uwtable
define linkonce_odr hidden noundef nonnull align 8 dereferenceable(8) ptr @_ZNSt11_Tuple_implILm0EJPN2cv5gimpl26GAbstractStreamingExecutorESt14default_deleteIS2_EEE7_M_headERKS6_(ptr noundef nonnull align 8 dereferenceable(8) %0) #5 comdat align 2 {
  %2 = alloca ptr, align 8
  store ptr %0, ptr %2, align 8, !tbaa !67
  %3 = load ptr, ptr %2, align 8, !tbaa !67
  %4 = call noundef nonnull align 8 dereferenceable(8) ptr @_ZNSt10_Head_baseILm0EPN2cv5gimpl26GAbstractStreamingExecutorELb0EE7_M_headERKS4_(ptr noundef nonnull align 8 dereferenceable(8) %3) #3
  ret ptr %4
}

; Function Attrs: mustprogress nounwind uwtable
define linkonce_odr hidden noundef nonnull align 8 dereferenceable(8) ptr @_ZSt12__get_helperILm0EPN2cv5gimpl26GAbstractStreamingExecutorEJSt14default_deleteIS2_EEERKT0_RKSt11_Tuple_implIXT_EJS6_DpT1_EE(ptr noundef nonnull align 8 dereferenceable(8) %0) #5 comdat {
  %2 = alloca ptr, align 8
  store ptr %0, ptr %2, align 8, !tbaa !67
  %3 = load ptr, ptr %2, align 8, !tbaa !67
  %4 = call noundef nonnull align 8 dereferenceable(8) ptr @_ZNSt11_Tuple_implILm0EJPN2cv5gimpl26GAbstractStreamingExecutorESt14default_deleteIS2_EEE7_M_headERKS6_(ptr noundef nonnull align 8 dereferenceable(8) %3) #3
  ret ptr %4
}

; Function Attrs: mustprogress nounwind uwtable
define linkonce_odr hidden noundef nonnull align 8 dereferenceable(8) ptr @_ZSt3getILm0EJPN2cv5gimpl26GAbstractStreamingExecutorESt14default_deleteIS2_EEERKNSt13tuple_elementIXT_ESt5tupleIJDpT0_EEE4typeERKSA_(ptr noundef nonnull align 8 dereferenceable(8) %0) #5 comdat {
  %2 = alloca ptr, align 8
  store ptr %0, ptr %2, align 8, !tbaa !65
  %3 = load ptr, ptr %2, align 8, !tbaa !65
  %4 = call noundef nonnull align 8 dereferenceable(8) ptr @_ZSt12__get_helperILm0EPN2cv5gimpl26GAbstractStreamingExecutorEJSt14default_deleteIS2_EEERKT0_RKSt11_Tuple_implIXT_EJS6_DpT1_EE(ptr noundef nonnull align 8 dereferenceable(8) %3) #3
  ret ptr %4
}

; Function Attrs: mustprogress nounwind uwtable
define linkonce_odr hidden noundef ptr @_ZNKSt15__uniq_ptr_implIN2cv5gimpl26GAbstractStreamingExecutorESt14default_deleteIS2_EE6_M_ptrEv(ptr noundef nonnull align 8 dereferenceable(8) %0) #5 comdat align 2 {
  %2 = alloca ptr, align 8
  store ptr %0, ptr %2, align 8, !tbaa !59
  %3 = load ptr, ptr %2, align 8
  %4 = getelementptr inbounds nuw %"class.std::__uniq_ptr_impl", ptr %3, i32 0, i32 0
  %5 = call noundef nonnull align 8 dereferenceable(8) ptr @_ZSt3getILm0EJPN2cv5gimpl26GAbstractStreamingExecutorESt14default_deleteIS2_EEERKNSt13tuple_elementIXT_ESt5tupleIJDpT0_EEE4typeERKSA_(ptr noundef nonnull align 8 dereferenceable(8) %4) #3
  %6 = load ptr, ptr %5, align 8, !tbaa !61
  ret ptr %6
}

; Function Attrs: mustprogress nounwind uwtable
define linkonce_odr hidden noundef ptr @_ZNKSt10unique_ptrIN2cv5gimpl26GAbstractStreamingExecutorESt14default_deleteIS2_EE3getEv(ptr noundef nonnull align 8 dereferenceable(8) %0) #5 comdat align 2 {
  %2 = alloca ptr, align 8
  store ptr %0, ptr %2, align 8, !tbaa !10
  %3 = load ptr, ptr %2, align 8
  %4 = getelementptr inbounds nuw %"class.std::unique_ptr", ptr %3, i32 0, i32 0
  %5 = call noundef ptr @_ZNKSt15__uniq_ptr_implIN2cv5gimpl26GAbstractStreamingExecutorESt14default_deleteIS2_EE6_M_ptrEv(ptr noundef nonnull align 8 dereferenceable(8) %4) #3
  ret ptr %5
}

; Function Attrs: mustprogress nounwind uwtable
define linkonce_odr hidden noundef ptr @_ZNKSt12__shared_ptrIN2cv18GStreamingCompiled4PrivELN9__gnu_cxx12_Lock_policyE2EE3getEv(ptr noundef nonnull align 8 dereferenceable(16) %0) #5 comdat align 2 {
  %2 = alloca ptr, align 8
  store ptr %0, ptr %2, align 8, !tbaa !302
  %3 = load ptr, ptr %2, align 8
  %4 = getelementptr inbounds nuw %"class.std::__shared_ptr.45", ptr %3, i32 0, i32 0
  %5 = load ptr, ptr %4, align 8, !tbaa !304
  ret ptr %5
}

; Function Attrs: mustprogress nounwind uwtable
define linkonce_odr hidden noundef ptr @_ZNKSt10unique_ptrIN2cv5gimpl26GAbstractStreamingExecutorESt14default_deleteIS2_EEptEv(ptr noundef nonnull align 8 dereferenceable(8) %0) #5 comdat align 2 {
  %2 = alloca ptr, align 8
  store ptr %0, ptr %2, align 8, !tbaa !10
  %3 = load ptr, ptr %2, align 8
  %4 = call noundef ptr @_ZNKSt10unique_ptrIN2cv5gimpl26GAbstractStreamingExecutorESt14default_deleteIS2_EE3getEv(ptr noundef nonnull align 8 dereferenceable(8) %3) #3
  ret ptr %4
}

; Function Attrs: mustprogress nounwind uwtable
define linkonce_odr hidden noundef ptr @_ZNKSt19__shared_ptr_accessIN2cv18GStreamingCompiled4PrivELN9__gnu_cxx12_Lock_policyE2ELb0ELb0EE6_M_getEv(ptr noundef nonnull align 1 dereferenceable(1) %0) #5 comdat align 2 {
  %2 = alloca ptr, align 8
  store ptr %0, ptr %2, align 8, !tbaa !46
  %3 = load ptr, ptr %2, align 8
  %4 = call noundef ptr @_ZNKSt12__shared_ptrIN2cv18GStreamingCompiled4PrivELN9__gnu_cxx12_Lock_policyE2EE3getEv(ptr noundef nonnull align 8 dereferenceable(16) %3) #3
  ret ptr %4
}

; Function Attrs: mustprogress uwtable
define void @_ZN2cv18GStreamingCompiled4Priv4pullEv(ptr dead_on_unwind noalias writable sret(%"class.std::tuple.39") align 8 %0, ptr noundef nonnull align 8 dereferenceable(104) %1) #4 align 2 {
  %3 = alloca ptr, align 8
  %4 = alloca ptr, align 8
  store ptr %0, ptr %3, align 8
  store ptr %1, ptr %4, align 8, !tbaa !3
  %5 = load ptr, ptr %4, align 8
  %6 = getelementptr inbounds nuw %"class.cv::GStreamingCompiled::Priv", ptr %5, i32 0, i32 2
  %7 = call noundef ptr @_ZNKSt10unique_ptrIN2cv5gimpl26GAbstractStreamingExecutorESt14default_deleteIS2_EEptEv(ptr noundef nonnull align 8 dereferenceable(8) %6) #3
  %8 = load ptr, ptr %7, align 8, !tbaa !22
  %9 = getelementptr inbounds ptr, ptr %8, i64 6
  %10 = load ptr, ptr %9, align 8
  call void %10(ptr dead_on_unwind writable sret(%"class.std::tuple.39") align 8 %0, ptr noundef nonnull align 8 dereferenceable(137) %7)
  ret void
}

; Function Attrs: mustprogress nounwind uwtable
define linkonce_odr hidden noundef ptr @_ZNKSt19__shared_ptr_accessIN2cv18GStreamingCompiled4PrivELN9__gnu_cxx12_Lock_policyE2ELb0ELb0EEptEv(ptr noundef nonnull align 1 dereferenceable(1) %0) #5 comdat align 2 {
  %2 = alloca ptr, align 8
  store ptr %0, ptr %2, align 8, !tbaa !46
  %3 = load ptr, ptr %2, align 8
  %4 = call noundef ptr @_ZNKSt19__shared_ptr_accessIN2cv18GStreamingCompiled4PrivELN9__gnu_cxx12_Lock_policyE2ELb0ELb0EE6_M_getEv(ptr noundef nonnull align 1 dereferenceable(1) %3) #3
  ret ptr %4
}

; Function Attrs: mustprogress uwtable
define void @_ZN2cv18GStreamingCompiled4pullEv(ptr dead_on_unwind noalias writable sret(%"class.std::tuple.39") align 8 %0, ptr noundef nonnull align 8 dereferenceable(16) %1) #4 align 2 {
  %3 = alloca ptr, align 8
  %4 = alloca ptr, align 8
  store ptr %0, ptr %3, align 8
  store ptr %1, ptr %4, align 8, !tbaa !38
  %5 = load ptr, ptr %4, align 8
  %6 = getelementptr inbounds nuw %"class.cv::GStreamingCompiled", ptr %5, i32 0, i32 0
  %7 = call noundef ptr @_ZNKSt19__shared_ptr_accessIN2cv18GStreamingCompiled4PrivELN9__gnu_cxx12_Lock_policyE2ELb0ELb0EEptEv(ptr noundef nonnull align 1 dereferenceable(1) %6) #3
  call void @_ZN2cv18GStreamingCompiled4Priv4pullEv(ptr dead_on_unwind writable sret(%"class.std::tuple.39") align 8 %0, ptr noundef nonnull align 8 dereferenceable(104) %7)
  ret void
}