; Function Attrs: mustprogress uwtable
define void @_ZN2cv18GStreamingCompiled4pullEv(ptr dead_on_unwind noalias writable sret(%"class.std::tuple.39") align 8 %0, ptr noundef nonnull readonly align 8 captures(none) dereferenceable(16) %1) local_unnamed_addr #3 align 2 {
  %3 = load ptr, ptr %1, align 8, !tbaa !31
  %4 = getelementptr inbounds nuw i8, ptr %3, i64 48
  %5 = load ptr, ptr %4, align 8, !tbaa !3, !noalias !88
  %6 = load ptr, ptr %5, align 8, !tbaa !8, !noalias !88
  %7 = getelementptr inbounds nuw i8, ptr %6, i64 48
  %8 = load ptr, ptr %7, align 8, !noalias !88
  tail call void %8(ptr dead_on_unwind writable sret(%"class.std::tuple.39") align 8 %0, ptr noundef nonnull align 8 dereferenceable(137) %5)
  ret void
}